MPLINK 5.09, LINKER
Linker Map File - Created Tue Oct 28 00:43:56 2025

                                 Section Info
                  Section       Type    Address   Location Size(Bytes)
                ---------  ---------  ---------  ---------  ---------
                   .org_0       code   0x000000    program   0x000310
                   .cinit    romdata   0x000310    program   0x000002
                    dbgP0       code   0x007dc0    program   0x000240
.config_300001_BUILD/DEFAULT/DEBUG/HARD.O    romdata   0x300001    program   0x000001
.config_300003_BUILD/DEFAULT/DEBUG/HARD.O    romdata   0x300003    program   0x000001
.config_300006_BUILD/DEFAULT/DEBUG/HARD.O    romdata   0x300006    program   0x000001
                    dbgD0      udata   0x0005f4       data   0x00000c



                              Program Memory Usage 
                               Start         End      
                           ---------   ---------      
                            0x000000    0x000311      
                            0x007dc0    0x007fff      
                            0x300001    0x300001      
                            0x300003    0x300003      
                            0x300006    0x300006      
            1365 out of 33048 program addresses used, program memory utilization is 4%



                              Symbols - Sorted by Name
                     Name    Address   Location    Storage File                     
                ---------  ---------  ---------  --------- ---------                
                 _11LOOP1   0x000140    program     static C:\Users\Seana\MPLABXProjects\lab6.X\hard.asm
                 _11LOOP2   0x00013c    program     static C:\Users\Seana\MPLABXProjects\lab6.X\hard.asm
                 _12LOOP1   0x00015e    program     static C:\Users\Seana\MPLABXProjects\lab6.X\hard.asm
                 _12LOOP2   0x00015a    program     static C:\Users\Seana\MPLABXProjects\lab6.X\hard.asm
                 _14LOOP1   0x000184    program     static C:\Users\Seana\MPLABXProjects\lab6.X\hard.asm
                 _14LOOP2   0x000180    program     static C:\Users\Seana\MPLABXProjects\lab6.X\hard.asm
                 _15LOOP1   0x0001a2    program     static C:\Users\Seana\MPLABXProjects\lab6.X\hard.asm
                 _15LOOP2   0x00019e    program     static C:\Users\Seana\MPLABXProjects\lab6.X\hard.asm
                 _17LOOP1   0x0001c8    program     static C:\Users\Seana\MPLABXProjects\lab6.X\hard.asm
                 _17LOOP2   0x0001c4    program     static C:\Users\Seana\MPLABXProjects\lab6.X\hard.asm
                 _18LOOP1   0x0001e6    program     static C:\Users\Seana\MPLABXProjects\lab6.X\hard.asm
                 _18LOOP2   0x0001e2    program     static C:\Users\Seana\MPLABXProjects\lab6.X\hard.asm
                  _1LOOP1   0x00002a    program     static C:\Users\Seana\MPLABXProjects\lab6.X\hard.asm
                  _1LOOP2   0x000026    program     static C:\Users\Seana\MPLABXProjects\lab6.X\hard.asm
                 _20LOOP1   0x00020e    program     static C:\Users\Seana\MPLABXProjects\lab6.X\hard.asm
                 _20LOOP2   0x00020a    program     static C:\Users\Seana\MPLABXProjects\lab6.X\hard.asm
                 _21LOOP1   0x00022c    program     static C:\Users\Seana\MPLABXProjects\lab6.X\hard.asm
                 _21LOOP2   0x000228    program     static C:\Users\Seana\MPLABXProjects\lab6.X\hard.asm
                 _22LOOP1   0x000252    program     static C:\Users\Seana\MPLABXProjects\lab6.X\hard.asm
                 _22LOOP2   0x00024e    program     static C:\Users\Seana\MPLABXProjects\lab6.X\hard.asm
                 _23LOOP1   0x000270    program     static C:\Users\Seana\MPLABXProjects\lab6.X\hard.asm
                 _23LOOP2   0x00026c    program     static C:\Users\Seana\MPLABXProjects\lab6.X\hard.asm
                 _24LOOP1   0x00028e    program     static C:\Users\Seana\MPLABXProjects\lab6.X\hard.asm
                 _24LOOP2   0x00028a    program     static C:\Users\Seana\MPLABXProjects\lab6.X\hard.asm
                 _25LOOP1   0x0002ac    program     static C:\Users\Seana\MPLABXProjects\lab6.X\hard.asm
                 _25LOOP2   0x0002a8    program     static C:\Users\Seana\MPLABXProjects\lab6.X\hard.asm
                 _27LOOP1   0x0002fa    program     static C:\Users\Seana\MPLABXProjects\lab6.X\hard.asm
                 _27LOOP2   0x0002f6    program     static C:\Users\Seana\MPLABXProjects\lab6.X\hard.asm
                  _2LOOP1   0x000048    program     static C:\Users\Seana\MPLABXProjects\lab6.X\hard.asm
                  _2LOOP2   0x000044    program     static C:\Users\Seana\MPLABXProjects\lab6.X\hard.asm
                  _3LOOP1   0x00006c    program     static C:\Users\Seana\MPLABXProjects\lab6.X\hard.asm
                  _3LOOP2   0x000068    program     static C:\Users\Seana\MPLABXProjects\lab6.X\hard.asm
                  _4LOOP1   0x00008a    program     static C:\Users\Seana\MPLABXProjects\lab6.X\hard.asm
                  _4LOOP2   0x000086    program     static C:\Users\Seana\MPLABXProjects\lab6.X\hard.asm
                  _5LOOP1   0x0000a8    program     static C:\Users\Seana\MPLABXProjects\lab6.X\hard.asm
                  _5LOOP2   0x0000a4    program     static C:\Users\Seana\MPLABXProjects\lab6.X\hard.asm
                  _6LOOP1   0x0000c6    program     static C:\Users\Seana\MPLABXProjects\lab6.X\hard.asm
                  _6LOOP2   0x0000c2    program     static C:\Users\Seana\MPLABXProjects\lab6.X\hard.asm
                  _7LOOP1   0x0000f0    program     static C:\Users\Seana\MPLABXProjects\lab6.X\hard.asm
                  _7LOOP2   0x0000ec    program     static C:\Users\Seana\MPLABXProjects\lab6.X\hard.asm
                  _8LOOP1   0x00010e    program     static C:\Users\Seana\MPLABXProjects\lab6.X\hard.asm
                  _8LOOP2   0x00010a    program     static C:\Users\Seana\MPLABXProjects\lab6.X\hard.asm
                  _state0   0x000126    program     static C:\Users\Seana\MPLABXProjects\lab6.X\hard.asm
                  _state1   0x000130    program     static C:\Users\Seana\MPLABXProjects\lab6.X\hard.asm
                  _state2   0x0001fe    program     static C:\Users\Seana\MPLABXProjects\lab6.X\hard.asm
                _state2_3   0x00001c    program     static C:\Users\Seana\MPLABXProjects\lab6.X\hard.asm
            check_process   0x0002ea    program     static C:\Users\Seana\MPLABXProjects\lab6.X\hard.asm
                go_state0   0x0002e4    program     static C:\Users\Seana\MPLABXProjects\lab6.X\hard.asm
                      int   0x000000    program     static C:\Users\Seana\MPLABXProjects\lab6.X\hard.asm
                  lightup   0x0002ca    program     static C:\Users\Seana\MPLABXProjects\lab6.X\hard.asm
                   skip_0   0x0002da    program     static C:\Users\Seana\MPLABXProjects\lab6.X\hard.asm
                   skip_1   0x0002e4    program     static C:\Users\Seana\MPLABXProjects\lab6.X\hard.asm
                    start   0x000000    program     static C:\Users\Seana\MPLABXProjects\lab6.X\hard.asm



                              Symbols - Sorted by Address
                     Name    Address   Location    Storage File                     
                ---------  ---------  ---------  --------- ---------                
                    start   0x000000    program     static C:\Users\Seana\MPLABXProjects\lab6.X\hard.asm
                      int   0x000000    program     static C:\Users\Seana\MPLABXProjects\lab6.X\hard.asm
                _state2_3   0x00001c    program     static C:\Users\Seana\MPLABXProjects\lab6.X\hard.asm
                  _1LOOP2   0x000026    program     static C:\Users\Seana\MPLABXProjects\lab6.X\hard.asm
                  _1LOOP1   0x00002a    program     static C:\Users\Seana\MPLABXProjects\lab6.X\hard.asm
                  _2LOOP2   0x000044    program     static C:\Users\Seana\MPLABXProjects\lab6.X\hard.asm
                  _2LOOP1   0x000048    program     static C:\Users\Seana\MPLABXProjects\lab6.X\hard.asm
                  _3LOOP2   0x000068    program     static C:\Users\Seana\MPLABXProjects\lab6.X\hard.asm
                  _3LOOP1   0x00006c    program     static C:\Users\Seana\MPLABXProjects\lab6.X\hard.asm
                  _4LOOP2   0x000086    program     static C:\Users\Seana\MPLABXProjects\lab6.X\hard.asm
                  _4LOOP1   0x00008a    program     static C:\Users\Seana\MPLABXProjects\lab6.X\hard.asm
                  _5LOOP2   0x0000a4    program     static C:\Users\Seana\MPLABXProjects\lab6.X\hard.asm
                  _5LOOP1   0x0000a8    program     static C:\Users\Seana\MPLABXProjects\lab6.X\hard.asm
                  _6LOOP2   0x0000c2    program     static C:\Users\Seana\MPLABXProjects\lab6.X\hard.asm
                  _6LOOP1   0x0000c6    program     static C:\Users\Seana\MPLABXProjects\lab6.X\hard.asm
                  _7LOOP2   0x0000ec    program     static C:\Users\Seana\MPLABXProjects\lab6.X\hard.asm
                  _7LOOP1   0x0000f0    program     static C:\Users\Seana\MPLABXProjects\lab6.X\hard.asm
                  _8LOOP2   0x00010a    program     static C:\Users\Seana\MPLABXProjects\lab6.X\hard.asm
                  _8LOOP1   0x00010e    program     static C:\Users\Seana\MPLABXProjects\lab6.X\hard.asm
                  _state0   0x000126    program     static C:\Users\Seana\MPLABXProjects\lab6.X\hard.asm
                  _state1   0x000130    program     static C:\Users\Seana\MPLABXProjects\lab6.X\hard.asm
                 _11LOOP2   0x00013c    program     static C:\Users\Seana\MPLABXProjects\lab6.X\hard.asm
                 _11LOOP1   0x000140    program     static C:\Users\Seana\MPLABXProjects\lab6.X\hard.asm
                 _12LOOP2   0x00015a    program     static C:\Users\Seana\MPLABXProjects\lab6.X\hard.asm
                 _12LOOP1   0x00015e    program     static C:\Users\Seana\MPLABXProjects\lab6.X\hard.asm
                 _14LOOP2   0x000180    program     static C:\Users\Seana\MPLABXProjects\lab6.X\hard.asm
                 _14LOOP1   0x000184    program     static C:\Users\Seana\MPLABXProjects\lab6.X\hard.asm
                 _15LOOP2   0x00019e    program     static C:\Users\Seana\MPLABXProjects\lab6.X\hard.asm
                 _15LOOP1   0x0001a2    program     static C:\Users\Seana\MPLABXProjects\lab6.X\hard.asm
                 _17LOOP2   0x0001c4    program     static C:\Users\Seana\MPLABXProjects\lab6.X\hard.asm
                 _17LOOP1   0x0001c8    program     static C:\Users\Seana\MPLABXProjects\lab6.X\hard.asm
                 _18LOOP2   0x0001e2    program     static C:\Users\Seana\MPLABXProjects\lab6.X\hard.asm
                 _18LOOP1   0x0001e6    program     static C:\Users\Seana\MPLABXProjects\lab6.X\hard.asm
                  _state2   0x0001fe    program     static C:\Users\Seana\MPLABXProjects\lab6.X\hard.asm
                 _20LOOP2   0x00020a    program     static C:\Users\Seana\MPLABXProjects\lab6.X\hard.asm
                 _20LOOP1   0x00020e    program     static C:\Users\Seana\MPLABXProjects\lab6.X\hard.asm
                 _21LOOP2   0x000228    program     static C:\Users\Seana\MPLABXProjects\lab6.X\hard.asm
                 _21LOOP1   0x00022c    program     static C:\Users\Seana\MPLABXProjects\lab6.X\hard.asm
                 _22LOOP2   0x00024e    program     static C:\Users\Seana\MPLABXProjects\lab6.X\hard.asm
                 _22LOOP1   0x000252    program     static C:\Users\Seana\MPLABXProjects\lab6.X\hard.asm
                 _23LOOP2   0x00026c    program     static C:\Users\Seana\MPLABXProjects\lab6.X\hard.asm
                 _23LOOP1   0x000270    program     static C:\Users\Seana\MPLABXProjects\lab6.X\hard.asm
                 _24LOOP2   0x00028a    program     static C:\Users\Seana\MPLABXProjects\lab6.X\hard.asm
                 _24LOOP1   0x00028e    program     static C:\Users\Seana\MPLABXProjects\lab6.X\hard.asm
                 _25LOOP2   0x0002a8    program     static C:\Users\Seana\MPLABXProjects\lab6.X\hard.asm
                 _25LOOP1   0x0002ac    program     static C:\Users\Seana\MPLABXProjects\lab6.X\hard.asm
                  lightup   0x0002ca    program     static C:\Users\Seana\MPLABXProjects\lab6.X\hard.asm
                   skip_0   0x0002da    program     static C:\Users\Seana\MPLABXProjects\lab6.X\hard.asm
                go_state0   0x0002e4    program     static C:\Users\Seana\MPLABXProjects\lab6.X\hard.asm
                   skip_1   0x0002e4    program     static C:\Users\Seana\MPLABXProjects\lab6.X\hard.asm
            check_process   0x0002ea    program     static C:\Users\Seana\MPLABXProjects\lab6.X\hard.asm
                 _27LOOP2   0x0002f6    program     static C:\Users\Seana\MPLABXProjects\lab6.X\hard.asm
                 _27LOOP1   0x0002fa    program     static C:\Users\Seana\MPLABXProjects\lab6.X\hard.asm


